; ModuleID = '37/140.c'
source_filename = "37/140.c"
target datalayout = "e-m:e-p270:32:32-p271:32:32-p272:64:64-i64:64-f80:128-n8:16:32:64-S128"
target triple = "x86_64-pc-linux-gnu"

@.str = private unnamed_addr constant [3 x i8] c"%d\00", align 1
@use = common dso_local global [26 x i32] zeroinitializer, align 16
@.str.1 = private unnamed_addr constant [3 x i8] c"%s\00", align 1
@s = common dso_local global [1000010 x i8] zeroinitializer, align 16
@.str.2 = private unnamed_addr constant [4 x i8] c"no\0A\00", align 1
@.str.3 = private unnamed_addr constant [4 x i8] c"%c\0A\00", align 1

; Function Attrs: noinline nounwind uwtable
define dso_local i32 @main() #0 {
  %1 = alloca i32, align 4
  %2 = alloca i32, align 4
  %3 = alloca i32, align 4
  %4 = alloca i32, align 4
  %5 = alloca i32, align 4
  %6 = alloca i32, align 4
  %7 = alloca i8, align 1
  store i32 0, i32* %1, align 4
  %8 = call i32 (i8*, ...) @__isoc99_scanf(i8* getelementptr inbounds ([3 x i8], [3 x i8]* @.str, i64 0, i64 0), i32* %2)
  store i32 0, i32* %4, align 4
  br label %9

9:                                                ; preds = %117, %0
  %10 = load i32, i32* %4, align 4
  %11 = load i32, i32* %2, align 4
  %12 = icmp slt i32 %10, %11
  br i1 %12, label %13, label %120

13:                                               ; preds = %9
  store i32 0, i32* %3, align 4
  br label %14

14:                                               ; preds = %21, %13
  %15 = load i32, i32* %3, align 4
  %16 = icmp slt i32 %15, 26
  br i1 %16, label %17, label %24

17:                                               ; preds = %14
  %18 = load i32, i32* %3, align 4
  %19 = sext i32 %18 to i64
  %20 = getelementptr inbounds [26 x i32], [26 x i32]* @use, i64 0, i64 %19
  store i32 -1, i32* %20, align 4
  br label %21

21:                                               ; preds = %17
  %22 = load i32, i32* %3, align 4
  %23 = add nsw i32 %22, 1
  store i32 %23, i32* %3, align 4
  br label %14

24:                                               ; preds = %14
  %25 = call i32 (i8*, ...) @__isoc99_scanf(i8* getelementptr inbounds ([3 x i8], [3 x i8]* @.str.1, i64 0, i64 0), i8* getelementptr inbounds ([1000010 x i8], [1000010 x i8]* @s, i64 0, i64 0))
  %26 = call i64 @strlen(i8* getelementptr inbounds ([1000010 x i8], [1000010 x i8]* @s, i64 0, i64 0)) #3
  %27 = trunc i64 %26 to i32
  store i32 %27, i32* %5, align 4
  store i32 0, i32* %3, align 4
  br label %28

28:                                               ; preds = %74, %24
  %29 = load i32, i32* %3, align 4
  %30 = load i32, i32* %5, align 4
  %31 = icmp slt i32 %29, %30
  br i1 %31, label %32, label %77

32:                                               ; preds = %28
  %33 = load i32, i32* %3, align 4
  %34 = sext i32 %33 to i64
  %35 = getelementptr inbounds [1000010 x i8], [1000010 x i8]* @s, i64 0, i64 %34
  %36 = load i8, i8* %35, align 1
  %37 = sext i8 %36 to i32
  %38 = sub nsw i32 %37, 97
  %39 = sext i32 %38 to i64
  %40 = getelementptr inbounds [26 x i32], [26 x i32]* @use, i64 0, i64 %39
  %41 = load i32, i32* %40, align 4
  %42 = icmp sge i32 %41, 0
  br i1 %42, label %43, label %52

43:                                               ; preds = %32
  %44 = load i32, i32* %3, align 4
  %45 = sext i32 %44 to i64
  %46 = getelementptr inbounds [1000010 x i8], [1000010 x i8]* @s, i64 0, i64 %45
  %47 = load i8, i8* %46, align 1
  %48 = sext i8 %47 to i32
  %49 = sub nsw i32 %48, 97
  %50 = sext i32 %49 to i64
  %51 = getelementptr inbounds [26 x i32], [26 x i32]* @use, i64 0, i64 %50
  store i32 -2, i32* %51, align 4
  br label %52

52:                                               ; preds = %43, %32
  %53 = load i32, i32* %3, align 4
  %54 = sext i32 %53 to i64
  %55 = getelementptr inbounds [1000010 x i8], [1000010 x i8]* @s, i64 0, i64 %54
  %56 = load i8, i8* %55, align 1
  %57 = sext i8 %56 to i32
  %58 = sub nsw i32 %57, 97
  %59 = sext i32 %58 to i64
  %60 = getelementptr inbounds [26 x i32], [26 x i32]* @use, i64 0, i64 %59
  %61 = load i32, i32* %60, align 4
  %62 = icmp eq i32 %61, -1
  br i1 %62, label %63, label %73

63:                                               ; preds = %52
  %64 = load i32, i32* %3, align 4
  %65 = load i32, i32* %3, align 4
  %66 = sext i32 %65 to i64
  %67 = getelementptr inbounds [1000010 x i8], [1000010 x i8]* @s, i64 0, i64 %66
  %68 = load i8, i8* %67, align 1
  %69 = sext i8 %68 to i32
  %70 = sub nsw i32 %69, 97
  %71 = sext i32 %70 to i64
  %72 = getelementptr inbounds [26 x i32], [26 x i32]* @use, i64 0, i64 %71
  store i32 %64, i32* %72, align 4
  br label %73

73:                                               ; preds = %63, %52
  br label %74

74:                                               ; preds = %73
  %75 = load i32, i32* %3, align 4
  %76 = add nsw i32 %75, 1
  store i32 %76, i32* %3, align 4
  br label %28

77:                                               ; preds = %28
  store i32 10000000, i32* %6, align 4
  store i8 -1, i8* %7, align 1
  store i32 0, i32* %3, align 4
  br label %78

78:                                               ; preds = %103, %77
  %79 = load i32, i32* %3, align 4
  %80 = icmp slt i32 %79, 26
  br i1 %80, label %81, label %106

81:                                               ; preds = %78
  %82 = load i32, i32* %3, align 4
  %83 = sext i32 %82 to i64
  %84 = getelementptr inbounds [26 x i32], [26 x i32]* @use, i64 0, i64 %83
  %85 = load i32, i32* %84, align 4
  %86 = icmp sge i32 %85, 0
  br i1 %86, label %87, label %102

87:                                               ; preds = %81
  %88 = load i32, i32* %3, align 4
  %89 = sext i32 %88 to i64
  %90 = getelementptr inbounds [26 x i32], [26 x i32]* @use, i64 0, i64 %89
  %91 = load i32, i32* %90, align 4
  %92 = load i32, i32* %6, align 4
  %93 = icmp slt i32 %91, %92
  br i1 %93, label %94, label %102

94:                                               ; preds = %87
  %95 = load i32, i32* %3, align 4
  %96 = sext i32 %95 to i64
  %97 = getelementptr inbounds [26 x i32], [26 x i32]* @use, i64 0, i64 %96
  %98 = load i32, i32* %97, align 4
  store i32 %98, i32* %6, align 4
  %99 = load i32, i32* %3, align 4
  %100 = add nsw i32 %99, 97
  %101 = trunc i32 %100 to i8
  store i8 %101, i8* %7, align 1
  br label %102

102:                                              ; preds = %94, %87, %81
  br label %103

103:                                              ; preds = %102
  %104 = load i32, i32* %3, align 4
  %105 = add nsw i32 %104, 1
  store i32 %105, i32* %3, align 4
  br label %78

106:                                              ; preds = %78
  %107 = load i8, i8* %7, align 1
  %108 = sext i8 %107 to i32
  %109 = icmp eq i32 %108, -1
  br i1 %109, label %110, label %112

110:                                              ; preds = %106
  %111 = call i32 (i8*, ...) @printf(i8* getelementptr inbounds ([4 x i8], [4 x i8]* @.str.2, i64 0, i64 0))
  br label %116

112:                                              ; preds = %106
  %113 = load i8, i8* %7, align 1
  %114 = sext i8 %113 to i32
  %115 = call i32 (i8*, ...) @printf(i8* getelementptr inbounds ([4 x i8], [4 x i8]* @.str.3, i64 0, i64 0), i32 %114)
  br label %116

116:                                              ; preds = %112, %110
  br label %117

117:                                              ; preds = %116
  %118 = load i32, i32* %4, align 4
  %119 = add nsw i32 %118, 1
  store i32 %119, i32* %4, align 4
  br label %9

120:                                              ; preds = %9
  ret i32 0
}

declare dso_local i32 @__isoc99_scanf(i8*, ...) #1

; Function Attrs: nounwind readonly
declare dso_local i64 @strlen(i8*) #2

declare dso_local i32 @printf(i8*, ...) #1


!llvm.module.flags = !{!0}
!llvm.ident = !{!1}

!0 = !{i32 1, !"wchar_size", i32 4}
!1 = !{!"clang version 10.0.0-4ubuntu1 "}
